target datalayout = "e-m:e-p270:32:32-p271:32:32-p272:64:64-i64:64-i128:128-f80:128-n8:16:32:64-S128"
target triple = "x86_64-pc-linux-gnu"

%struct._typeobject = type { %struct.PyVarObject, ptr, i64, i64, ptr, i64, ptr, ptr, ptr, ptr, ptr, ptr, ptr, ptr, ptr, ptr, ptr, ptr, ptr, i64, ptr, ptr, ptr, ptr, i64, ptr, ptr, ptr, ptr, ptr, ptr, ptr, ptr, ptr, i64, ptr, ptr, ptr, ptr, ptr, ptr, ptr, ptr, ptr, ptr, ptr, i32, ptr, ptr, i8, i16 }
%struct.PyVarObject = type { %struct._object, i64 }
%struct._object = type { %union.anon, ptr }
%union.anon = type { i64 }
%struct.Py_complex = type { double, double }
%struct.PyComplexObject = type { %struct._object, %struct.Py_complex }

@PyExc_ValueError = external global ptr, align 8
@_Py_ctype_table = external constant [256 x i32], align 16
@.str.30 = private unnamed_addr constant [36 x i8] c"complex() arg is a malformed string\00", align 1

; Function Attrs: nounwind uwtable
define internal ptr @complex_subtype_from_c_complex(ptr noundef %0, double %1, double %2) #0 {
  %4 = alloca %struct.Py_complex, align 8
  %5 = alloca ptr, align 8
  %6 = alloca ptr, align 8
  %7 = getelementptr inbounds nuw { double, double }, ptr %4, i32 0, i32 0
  store double %1, ptr %7, align 8
  %8 = getelementptr inbounds nuw { double, double }, ptr %4, i32 0, i32 1
  store double %2, ptr %8, align 8
  store ptr %0, ptr %5, align 8, !tbaa !18
  call void @llvm.lifetime.start.p0(i64 8, ptr %6) #9
  %9 = load ptr, ptr %5, align 8, !tbaa !18
  %10 = getelementptr inbounds nuw %struct._typeobject, ptr %9, i32 0, i32 36
  %11 = load ptr, ptr %10, align 8, !tbaa !61
  %12 = load ptr, ptr %5, align 8, !tbaa !18
  %13 = call ptr %11(ptr noundef %12, i64 noundef 0)
  store ptr %13, ptr %6, align 8, !tbaa !16
  %14 = load ptr, ptr %6, align 8, !tbaa !16
  %15 = icmp ne ptr %14, null
  br i1 %15, label %16, label %19

16:                                               ; preds = %3
  %17 = load ptr, ptr %6, align 8, !tbaa !16
  %18 = getelementptr inbounds nuw %struct.PyComplexObject, ptr %17, i32 0, i32 1
  call void @llvm.memcpy.p0.p0.i64(ptr align 8 %18, ptr align 8 %4, i64 16, i1 false), !tbaa.struct !11
  br label %19

19:                                               ; preds = %16, %3
  %20 = load ptr, ptr %6, align 8, !tbaa !16
  call void @llvm.lifetime.end.p0(i64 8, ptr %6) #9
  ret ptr %20
}

; Function Attrs: nounwind uwtable
define internal ptr @complex_subtype_from_doubles(ptr noundef %0, double noundef %1, double noundef %2) #0 {
  %4 = alloca ptr, align 8
  %5 = alloca double, align 8
  %6 = alloca double, align 8
  %7 = alloca %struct.Py_complex, align 8
  store ptr %0, ptr %4, align 8, !tbaa !18
  store double %1, ptr %5, align 8, !tbaa !10
  store double %2, ptr %6, align 8, !tbaa !10
  call void @llvm.lifetime.start.p0(i64 16, ptr %7) #9
  %8 = load double, ptr %5, align 8, !tbaa !10
  %9 = getelementptr inbounds nuw %struct.Py_complex, ptr %7, i32 0, i32 0
  store double %8, ptr %9, align 8, !tbaa !4
  %10 = load double, ptr %6, align 8, !tbaa !10
  %11 = getelementptr inbounds nuw %struct.Py_complex, ptr %7, i32 0, i32 1
  store double %10, ptr %11, align 8, !tbaa !9
  %12 = load ptr, ptr %4, align 8, !tbaa !18
  %13 = getelementptr inbounds nuw { double, double }, ptr %7, i32 0, i32 0
  %14 = load double, ptr %13, align 8
  %15 = getelementptr inbounds nuw { double, double }, ptr %7, i32 0, i32 1
  %16 = load double, ptr %15, align 8
  %17 = call ptr @complex_subtype_from_c_complex(ptr noundef %12, double %14, double %16)
  call void @llvm.lifetime.end.p0(i64 16, ptr %7) #9
  ret ptr %17
}

; Function Attrs: nounwind uwtable
define internal ptr @complex_from_string_inner(ptr noundef %0, i64 noundef %1, ptr noundef %2) #0 {
  %4 = alloca ptr, align 8
  %5 = alloca ptr, align 8
  %6 = alloca i64, align 8
  %7 = alloca ptr, align 8
  %8 = alloca double, align 8
  %9 = alloca double, align 8
  %10 = alloca double, align 8
  %11 = alloca i32, align 4
  %12 = alloca ptr, align 8
  %13 = alloca ptr, align 8
  %14 = alloca i32, align 4
  store ptr %0, ptr %5, align 8, !tbaa !34
  store i64 %1, ptr %6, align 8, !tbaa !35
  store ptr %2, ptr %7, align 8, !tbaa !14
  call void @llvm.lifetime.start.p0(i64 8, ptr %8) #9
  store double 0.000000e+00, ptr %8, align 8, !tbaa !10
  call void @llvm.lifetime.start.p0(i64 8, ptr %9) #9
  store double 0.000000e+00, ptr %9, align 8, !tbaa !10
  call void @llvm.lifetime.start.p0(i64 8, ptr %10) #9
  call void @llvm.lifetime.start.p0(i64 4, ptr %11) #9
  store i32 0, ptr %11, align 4, !tbaa !12
  call void @llvm.lifetime.start.p0(i64 8, ptr %12) #9
  call void @llvm.lifetime.start.p0(i64 8, ptr %13) #9
  %15 = load ptr, ptr %5, align 8, !tbaa !34
  store ptr %15, ptr %12, align 8, !tbaa !34
  br label %16

16:                                               ; preds = %27, %3
  %17 = load ptr, ptr %5, align 8, !tbaa !34
  %18 = load i8, ptr %17, align 1, !tbaa !32
  %19 = sext i8 %18 to i32
  %20 = and i32 %19, 255
  %21 = trunc i32 %20 to i8
  %22 = zext i8 %21 to i64
  %23 = getelementptr [256 x i32], ptr @_Py_ctype_table, i64 0, i64 %22
  %24 = load i32, ptr %23, align 4, !tbaa !12
  %25 = and i32 %24, 8
  %26 = icmp ne i32 %25, 0
  br i1 %26, label %27, label %30

27:                                               ; preds = %16
  %28 = load ptr, ptr %5, align 8, !tbaa !34
  %29 = getelementptr i8, ptr %28, i32 1
  store ptr %29, ptr %5, align 8, !tbaa !34
  br label %16, !llvm.loop !62

30:                                               ; preds = %16
  %31 = load ptr, ptr %5, align 8, !tbaa !34
  %32 = load i8, ptr %31, align 1, !tbaa !32
  %33 = sext i8 %32 to i32
  %34 = icmp eq i32 %33, 40
  br i1 %34, label %35, label %53

35:                                               ; preds = %30
  store i32 1, ptr %11, align 4, !tbaa !12
  %36 = load ptr, ptr %5, align 8, !tbaa !34
  %37 = getelementptr i8, ptr %36, i32 1
  store ptr %37, ptr %5, align 8, !tbaa !34
  br label %38

38:                                               ; preds = %49, %35
  %39 = load ptr, ptr %5, align 8, !tbaa !34
  %40 = load i8, ptr %39, align 1, !tbaa !32
  %41 = sext i8 %40 to i32
  %42 = and i32 %41, 255
  %43 = trunc i32 %42 to i8
  %44 = zext i8 %43 to i64
  %45 = getelementptr [256 x i32], ptr @_Py_ctype_table, i64 0, i64 %44
  %46 = load i32, ptr %45, align 4, !tbaa !12
  %47 = and i32 %46, 8
  %48 = icmp ne i32 %47, 0
  br i1 %48, label %49, label %52

49:                                               ; preds = %38
  %50 = load ptr, ptr %5, align 8, !tbaa !34
  %51 = getelementptr i8, ptr %50, i32 1
  store ptr %51, ptr %5, align 8, !tbaa !34
  br label %38, !llvm.loop !63

52:                                               ; preds = %38
  br label %53

53:                                               ; preds = %52, %30
  %54 = load ptr, ptr %5, align 8, !tbaa !34
  %55 = call double @PyOS_string_to_double(ptr noundef %54, ptr noundef %13, ptr noundef null)
  store double %55, ptr %10, align 8, !tbaa !10
  %56 = load double, ptr %10, align 8, !tbaa !10
  %57 = fcmp oeq double %56, -1.000000e+00
  br i1 %57, label %58, label %68

58:                                               ; preds = %53
  %59 = call ptr @PyErr_Occurred()
  %60 = icmp ne ptr %59, null
  br i1 %60, label %61, label %68

61:                                               ; preds = %58
  %62 = load ptr, ptr @PyExc_ValueError, align 8, !tbaa !16
  %63 = call i32 @PyErr_ExceptionMatches(ptr noundef %62)
  %64 = icmp ne i32 %63, 0
  br i1 %64, label %65, label %66

65:                                               ; preds = %61
  call void @PyErr_Clear()
  br label %67

66:                                               ; preds = %61
  store ptr null, ptr %4, align 8
  store i32 1, ptr %14, align 4
  br label %236

67:                                               ; preds = %65
  br label %68

68:                                               ; preds = %67, %58, %53
  %69 = load ptr, ptr %13, align 8, !tbaa !34
  %70 = load ptr, ptr %5, align 8, !tbaa !34
  %71 = icmp ne ptr %69, %70
  br i1 %71, label %72, label %145

72:                                               ; preds = %68
  %73 = load ptr, ptr %13, align 8, !tbaa !34
  store ptr %73, ptr %5, align 8, !tbaa !34
  %74 = load ptr, ptr %5, align 8, !tbaa !34
  %75 = load i8, ptr %74, align 1, !tbaa !32
  %76 = sext i8 %75 to i32
  %77 = icmp eq i32 %76, 43
  br i1 %77, label %83, label %78

78:                                               ; preds = %72
  %79 = load ptr, ptr %5, align 8, !tbaa !34
  %80 = load i8, ptr %79, align 1, !tbaa !32
  %81 = sext i8 %80 to i32
  %82 = icmp eq i32 %81, 45
  br i1 %82, label %83, label %127

83:                                               ; preds = %78, %72
  %84 = load double, ptr %10, align 8, !tbaa !10
  store double %84, ptr %8, align 8, !tbaa !10
  %85 = load ptr, ptr %5, align 8, !tbaa !34
  %86 = call double @PyOS_string_to_double(ptr noundef %85, ptr noundef %13, ptr noundef null)
  store double %86, ptr %9, align 8, !tbaa !10
  %87 = load double, ptr %9, align 8, !tbaa !10
  %88 = fcmp oeq double %87, -1.000000e+00
  br i1 %88, label %89, label %99

89:                                               ; preds = %83
  %90 = call ptr @PyErr_Occurred()
  %91 = icmp ne ptr %90, null
  br i1 %91, label %92, label %99

92:                                               ; preds = %89
  %93 = load ptr, ptr @PyExc_ValueError, align 8, !tbaa !16
  %94 = call i32 @PyErr_ExceptionMatches(ptr noundef %93)
  %95 = icmp ne i32 %94, 0
  br i1 %95, label %96, label %97

96:                                               ; preds = %92
  call void @PyErr_Clear()
  br label %98

97:                                               ; preds = %92
  store ptr null, ptr %4, align 8
  store i32 1, ptr %14, align 4
  br label %236

98:                                               ; preds = %96
  br label %99

99:                                               ; preds = %98, %89, %83
  %100 = load ptr, ptr %13, align 8, !tbaa !34
  %101 = load ptr, ptr %5, align 8, !tbaa !34
  %102 = icmp ne ptr %100, %101
  br i1 %102, label %103, label %105

103:                                              ; preds = %99
  %104 = load ptr, ptr %13, align 8, !tbaa !34
  store ptr %104, ptr %5, align 8, !tbaa !34
  br label %113

105:                                              ; preds = %99
  %106 = load ptr, ptr %5, align 8, !tbaa !34
  %107 = load i8, ptr %106, align 1, !tbaa !32
  %108 = sext i8 %107 to i32
  %109 = icmp eq i32 %108, 43
  %110 = select i1 %109, double 1.000000e+00, double -1.000000e+00
  store double %110, ptr %9, align 8, !tbaa !10
  %111 = load ptr, ptr %5, align 8, !tbaa !34
  %112 = getelementptr i8, ptr %111, i32 1
  store ptr %112, ptr %5, align 8, !tbaa !34
  br label %113

113:                                              ; preds = %105, %103
  %114 = load ptr, ptr %5, align 8, !tbaa !34
  %115 = load i8, ptr %114, align 1, !tbaa !32
  %116 = sext i8 %115 to i32
  %117 = icmp eq i32 %116, 106
  br i1 %117, label %124, label %118

118:                                              ; preds = %113
  %119 = load ptr, ptr %5, align 8, !tbaa !34
  %120 = load i8, ptr %119, align 1, !tbaa !32
  %121 = sext i8 %120 to i32
  %122 = icmp eq i32 %121, 74
  br i1 %122, label %124, label %123

123:                                              ; preds = %118
  br label %234

124:                                              ; preds = %118, %113
  %125 = load ptr, ptr %5, align 8, !tbaa !34
  %126 = getelementptr i8, ptr %125, i32 1
  store ptr %126, ptr %5, align 8, !tbaa !34
  br label %144

127:                                              ; preds = %78
  %128 = load ptr, ptr %5, align 8, !tbaa !34
  %129 = load i8, ptr %128, align 1, !tbaa !32
  %130 = sext i8 %129 to i32
  %131 = icmp eq i32 %130, 106
  br i1 %131, label %137, label %132

132:                                              ; preds = %127
  %133 = load ptr, ptr %5, align 8, !tbaa !34
  %134 = load i8, ptr %133, align 1, !tbaa !32
  %135 = sext i8 %134 to i32
  %136 = icmp eq i32 %135, 74
  br i1 %136, label %137, label %141

137:                                              ; preds = %132, %127
  %138 = load ptr, ptr %5, align 8, !tbaa !34
  %139 = getelementptr i8, ptr %138, i32 1
  store ptr %139, ptr %5, align 8, !tbaa !34
  %140 = load double, ptr %10, align 8, !tbaa !10
  store double %140, ptr %9, align 8, !tbaa !10
  br label %143

141:                                              ; preds = %132
  %142 = load double, ptr %10, align 8, !tbaa !10
  store double %142, ptr %8, align 8, !tbaa !10
  br label %143

143:                                              ; preds = %141, %137
  br label %144

144:                                              ; preds = %143, %124
  br label %178

145:                                              ; preds = %68
  %146 = load ptr, ptr %5, align 8, !tbaa !34
  %147 = load i8, ptr %146, align 1, !tbaa !32
  %148 = sext i8 %147 to i32
  %149 = icmp eq i32 %148, 43
  br i1 %149, label %155, label %150

150:                                              ; preds = %145
  %151 = load ptr, ptr %5, align 8, !tbaa !34
  %152 = load i8, ptr %151, align 1, !tbaa !32
  %153 = sext i8 %152 to i32
  %154 = icmp eq i32 %153, 45
  br i1 %154, label %155, label %163

155:                                              ; preds = %150, %145
  %156 = load ptr, ptr %5, align 8, !tbaa !34
  %157 = load i8, ptr %156, align 1, !tbaa !32
  %158 = sext i8 %157 to i32
  %159 = icmp eq i32 %158, 43
  %160 = select i1 %159, double 1.000000e+00, double -1.000000e+00
  store double %160, ptr %9, align 8, !tbaa !10
  %161 = load ptr, ptr %5, align 8, !tbaa !34
  %162 = getelementptr i8, ptr %161, i32 1
  store ptr %162, ptr %5, align 8, !tbaa !34
  br label %164

163:                                              ; preds = %150
  store double 1.000000e+00, ptr %9, align 8, !tbaa !10
  br label %164

164:                                              ; preds = %163, %155
  %165 = load ptr, ptr %5, align 8, !tbaa !34
  %166 = load i8, ptr %165, align 1, !tbaa !32
  %167 = sext i8 %166 to i32
  %168 = icmp eq i32 %167, 106
  br i1 %168, label %175, label %169

169:                                              ; preds = %164
  %170 = load ptr, ptr %5, align 8, !tbaa !34
  %171 = load i8, ptr %170, align 1, !tbaa !32
  %172 = sext i8 %171 to i32
  %173 = icmp eq i32 %172, 74
  br i1 %173, label %175, label %174

174:                                              ; preds = %169
  br label %234

175:                                              ; preds = %169, %164
  %176 = load ptr, ptr %5, align 8, !tbaa !34
  %177 = getelementptr i8, ptr %176, i32 1
  store ptr %177, ptr %5, align 8, !tbaa !34
  br label %178

178:                                              ; preds = %175, %144
  br label %179

179:                                              ; preds = %190, %178
  %180 = load ptr, ptr %5, align 8, !tbaa !34
  %181 = load i8, ptr %180, align 1, !tbaa !32
  %182 = sext i8 %181 to i32
  %183 = and i32 %182, 255
  %184 = trunc i32 %183 to i8
  %185 = zext i8 %184 to i64
  %186 = getelementptr [256 x i32], ptr @_Py_ctype_table, i64 0, i64 %185
  %187 = load i32, ptr %186, align 4, !tbaa !12
  %188 = and i32 %187, 8
  %189 = icmp ne i32 %188, 0
  br i1 %189, label %190, label %193

190:                                              ; preds = %179
  %191 = load ptr, ptr %5, align 8, !tbaa !34
  %192 = getelementptr i8, ptr %191, i32 1
  store ptr %192, ptr %5, align 8, !tbaa !34
  br label %179, !llvm.loop !64

193:                                              ; preds = %179
  %194 = load i32, ptr %11, align 4, !tbaa !12
  %195 = icmp ne i32 %194, 0
  br i1 %195, label %196, label %220

196:                                              ; preds = %193
  %197 = load ptr, ptr %5, align 8, !tbaa !34
  %198 = load i8, ptr %197, align 1, !tbaa !32
  %199 = sext i8 %198 to i32
  %200 = icmp ne i32 %199, 41
  br i1 %200, label %201, label %202

201:                                              ; preds = %196
  br label %234

202:                                              ; preds = %196
  %203 = load ptr, ptr %5, align 8, !tbaa !34
  %204 = getelementptr i8, ptr %203, i32 1
  store ptr %204, ptr %5, align 8, !tbaa !34
  br label %205

205:                                              ; preds = %216, %202
  %206 = load ptr, ptr %5, align 8, !tbaa !34
  %207 = load i8, ptr %206, align 1, !tbaa !32
  %208 = sext i8 %207 to i32
  %209 = and i32 %208, 255
  %210 = trunc i32 %209 to i8
  %211 = zext i8 %210 to i64
  %212 = getelementptr [256 x i32], ptr @_Py_ctype_table, i64 0, i64 %211
  %213 = load i32, ptr %212, align 4, !tbaa !12
  %214 = and i32 %213, 8
  %215 = icmp ne i32 %214, 0
  br i1 %215, label %216, label %219

216:                                              ; preds = %205
  %217 = load ptr, ptr %5, align 8, !tbaa !34
  %218 = getelementptr i8, ptr %217, i32 1
  store ptr %218, ptr %5, align 8, !tbaa !34
  br label %205, !llvm.loop !65

219:                                              ; preds = %205
  br label %220

220:                                              ; preds = %219, %193
  %221 = load ptr, ptr %5, align 8, !tbaa !34
  %222 = load ptr, ptr %12, align 8, !tbaa !34
  %223 = ptrtoint ptr %221 to i64
  %224 = ptrtoint ptr %222 to i64
  %225 = sub i64 %223, %224
  %226 = load i64, ptr %6, align 8, !tbaa !35
  %227 = icmp ne i64 %225, %226
  br i1 %227, label %228, label %229

228:                                              ; preds = %220
  br label %234

229:                                              ; preds = %220
  %230 = load ptr, ptr %7, align 8, !tbaa !14
  %231 = load double, ptr %8, align 8, !tbaa !10
  %232 = load double, ptr %9, align 8, !tbaa !10
  %233 = call ptr @complex_subtype_from_doubles(ptr noundef %230, double noundef %231, double noundef %232)
  store ptr %233, ptr %4, align 8
  store i32 1, ptr %14, align 4
  br label %236

234:                                              ; preds = %228, %201, %174, %123
  %235 = load ptr, ptr @PyExc_ValueError, align 8, !tbaa !16
  call void @PyErr_SetString(ptr noundef %235, ptr noundef @.str.30)
  store ptr null, ptr %4, align 8
  store i32 1, ptr %14, align 4
  br label %236

236:                                              ; preds = %234, %229, %97, %66
  call void @llvm.lifetime.end.p0(i64 8, ptr %13) #9
  call void @llvm.lifetime.end.p0(i64 8, ptr %12) #9
  call void @llvm.lifetime.end.p0(i64 4, ptr %11) #9
  call void @llvm.lifetime.end.p0(i64 8, ptr %10) #9
  call void @llvm.lifetime.end.p0(i64 8, ptr %9) #9
  call void @llvm.lifetime.end.p0(i64 8, ptr %8) #9
  %237 = load ptr, ptr %4, align 8
  ret ptr %237
}