; Function Attrs: nounwind uwtable
define internal ptr @complex_from_string_inner(ptr noundef %0, i64 noundef %1, ptr noundef %2) #9 {
  %4 = alloca ptr, align 8
  call void @llvm.lifetime.start.p0(i64 8, ptr nonnull %4) #16
  br label %5

5:                                                ; preds = %5, %3
  %.047 = phi ptr [ %0, %3 ], [ %11, %5 ]
  %6 = load i8, ptr %.047, align 1, !tbaa !12
  %7 = zext i8 %6 to i64
  %8 = getelementptr [256 x i32], ptr @_Py_ctype_table, i64 0, i64 %7
  %9 = load i32, ptr %8, align 4, !tbaa !4
  %10 = and i32 %9, 8
  %.not = icmp eq i32 %10, 0
  %11 = getelementptr i8, ptr %.047, i64 1
  br i1 %.not, label %12, label %5, !llvm.loop !55

12:                                               ; preds = %5
  %.not67 = icmp eq i8 %6, 40
  br i1 %.not67, label %.preheader71, label %.loopexit72

.preheader71:                                     ; preds = %12, %.preheader71
  %.047.pn = phi ptr [ %.2, %.preheader71 ], [ %.047, %12 ]
  %.2 = getelementptr i8, ptr %.047.pn, i64 1
  %13 = load i8, ptr %.2, align 1, !tbaa !12
  %14 = zext i8 %13 to i64
  %15 = getelementptr [256 x i32], ptr @_Py_ctype_table, i64 0, i64 %14
  %16 = load i32, ptr %15, align 4, !tbaa !4
  %17 = and i32 %16, 8
  %.not58 = icmp eq i32 %17, 0
  br i1 %.not58, label %.loopexit72, label %.preheader71, !llvm.loop !56

.loopexit72:                                      ; preds = %.preheader71, %12
  %.1 = phi ptr [ %.047, %12 ], [ %.2, %.preheader71 ]
  %18 = call double @PyOS_string_to_double(ptr noundef nonnull %.1, ptr noundef nonnull %4, ptr noundef null) #16
  %19 = fcmp oeq double %18, -1.000000e+00
  br i1 %19, label %20, label %26

20:                                               ; preds = %.loopexit72
  %21 = call ptr @PyErr_Occurred() #16
  %.not59 = icmp eq ptr %21, null
  br i1 %.not59, label %26, label %22

22:                                               ; preds = %20
  %23 = load ptr, ptr @PyExc_ValueError, align 8, !tbaa !32
  %24 = call i32 @PyErr_ExceptionMatches(ptr noundef %23) #16
  %.not60 = icmp eq i32 %24, 0
  br i1 %.not60, label %complex_subtype_from_doubles.exit, label %25

25:                                               ; preds = %22
  call void @PyErr_Clear() #16
  br label %26

26:                                               ; preds = %25, %20, %.loopexit72
  %27 = load ptr, ptr %4, align 8, !tbaa !57
  %.not61 = icmp eq ptr %27, %.1
  br i1 %.not61, label %52, label %28

28:                                               ; preds = %26
  %29 = load i8, ptr %27, align 1, !tbaa !12
  switch i8 %29, label %62 [
    i8 43, label %30
    i8 45, label %30
    i8 106, label %50
    i8 74, label %50
  ]

30:                                               ; preds = %28, %28
  %31 = call double @PyOS_string_to_double(ptr noundef nonnull %27, ptr noundef nonnull %4, ptr noundef null) #16
  %32 = fcmp oeq double %31, -1.000000e+00
  br i1 %32, label %33, label %39

33:                                               ; preds = %30
  %34 = call ptr @PyErr_Occurred() #16
  %.not62 = icmp eq ptr %34, null
  br i1 %.not62, label %39, label %35

35:                                               ; preds = %33
  %36 = load ptr, ptr @PyExc_ValueError, align 8, !tbaa !32
  %37 = call i32 @PyErr_ExceptionMatches(ptr noundef %36) #16
  %.not63 = icmp eq i32 %37, 0
  br i1 %.not63, label %complex_subtype_from_doubles.exit, label %38

38:                                               ; preds = %35
  call void @PyErr_Clear() #16
  br label %39

39:                                               ; preds = %38, %33, %30
  %40 = load ptr, ptr %4, align 8, !tbaa !57
  %.not64 = icmp eq ptr %40, %27
  br i1 %.not64, label %41, label %46

41:                                               ; preds = %39
  %42 = load i8, ptr %27, align 1, !tbaa !12
  %43 = icmp eq i8 %42, 43
  %44 = select i1 %43, double 1.000000e+00, double -1.000000e+00
  %45 = getelementptr i8, ptr %27, i64 1
  br label %46

46:                                               ; preds = %39, %41
  %.048 = phi double [ %44, %41 ], [ %31, %39 ]
  %.3 = phi ptr [ %45, %41 ], [ %40, %39 ]
  %47 = load i8, ptr %.3, align 1, !tbaa !12
  switch i8 %47, label %86 [
    i8 106, label %48
    i8 74, label %48
  ]

48:                                               ; preds = %46, %46
  %49 = getelementptr i8, ptr %.3, i64 1
  br label %62

50:                                               ; preds = %28, %28
  %51 = getelementptr i8, ptr %27, i64 1
  br label %62

52:                                               ; preds = %26
  %53 = load i8, ptr %.1, align 1, !tbaa !12
  switch i8 %53, label %58 [
    i8 43, label %54
    i8 45, label %54
  ]

54:                                               ; preds = %52, %52
  %55 = icmp eq i8 %53, 43
  %56 = select i1 %55, double 1.000000e+00, double -1.000000e+00
  %57 = getelementptr i8, ptr %.1, i64 1
  %.pr = load i8, ptr %57, align 1, !tbaa !12
  br label %58

58:                                               ; preds = %52, %54
  %59 = phi i8 [ %53, %52 ], [ %.pr, %54 ]
  %.250 = phi double [ 1.000000e+00, %52 ], [ %56, %54 ]
  %.5 = phi ptr [ %.1, %52 ], [ %57, %54 ]
  switch i8 %59, label %86 [
    i8 106, label %60
    i8 74, label %60
  ]

60:                                               ; preds = %58, %58
  %61 = getelementptr i8, ptr %.5, i64 1
  br label %62

62:                                               ; preds = %28, %48, %50, %60
  %.051 = phi double [ %18, %48 ], [ 0.000000e+00, %50 ], [ 0.000000e+00, %60 ], [ %18, %28 ]
  %.149 = phi double [ %.048, %48 ], [ %18, %50 ], [ %.250, %60 ], [ 0.000000e+00, %28 ]
  %.4 = phi ptr [ %49, %48 ], [ %51, %50 ], [ %61, %60 ], [ %27, %28 ]
  br label %63

63:                                               ; preds = %63, %62
  %.6 = phi ptr [ %.4, %62 ], [ %69, %63 ]
  %64 = load i8, ptr %.6, align 1, !tbaa !12
  %65 = zext i8 %64 to i64
  %66 = getelementptr [256 x i32], ptr @_Py_ctype_table, i64 0, i64 %65
  %67 = load i32, ptr %66, align 4, !tbaa !4
  %68 = and i32 %67, 8
  %.not65 = icmp eq i32 %68, 0
  %69 = getelementptr i8, ptr %.6, i64 1
  br i1 %.not65, label %70, label %63, !llvm.loop !58

70:                                               ; preds = %63
  br i1 %.not67, label %71, label %.loopexit

71:                                               ; preds = %70
  %.not68 = icmp eq i8 %64, 41
  br i1 %.not68, label %.preheader, label %86

.preheader:                                       ; preds = %71, %.preheader
  %.6.pn = phi ptr [ %.8, %.preheader ], [ %.6, %71 ]
  %.8 = getelementptr i8, ptr %.6.pn, i64 1
  %72 = load i8, ptr %.8, align 1, !tbaa !12
  %73 = zext i8 %72 to i64
  %74 = getelementptr [256 x i32], ptr @_Py_ctype_table, i64 0, i64 %73
  %75 = load i32, ptr %74, align 4, !tbaa !4
  %76 = and i32 %75, 8
  %.not69 = icmp eq i32 %76, 0
  br i1 %.not69, label %.loopexit, label %.preheader, !llvm.loop !59

.loopexit:                                        ; preds = %.preheader, %70
  %.7 = phi ptr [ %.6, %70 ], [ %.8, %.preheader ]
  %77 = ptrtoint ptr %.7 to i64
  %78 = ptrtoint ptr %0 to i64
  %79 = sub i64 %77, %78
  %.not70 = icmp eq i64 %79, %1
  br i1 %.not70, label %80, label %86

80:                                               ; preds = %.loopexit
  %81 = getelementptr inbounds nuw i8, ptr %2, i64 304
  %82 = load ptr, ptr %81, align 8, !tbaa !44
  %83 = call ptr %82(ptr noundef %2, i64 noundef 0) #16
  %.not.i.i = icmp eq ptr %83, null
  br i1 %.not.i.i, label %complex_subtype_from_doubles.exit, label %84

84:                                               ; preds = %80
  %85 = getelementptr inbounds nuw i8, ptr %83, i64 16
  store double %.051, ptr %85, align 8, !tbaa !13
  %.sroa.2.0..sroa_idx.i.i = getelementptr inbounds nuw i8, ptr %83, i64 24
  store double %.149, ptr %.sroa.2.0..sroa_idx.i.i, align 8, !tbaa !13
  br label %complex_subtype_from_doubles.exit

86:                                               ; preds = %58, %46, %.loopexit, %71
  %87 = load ptr, ptr @PyExc_ValueError, align 8, !tbaa !32
  call void @PyErr_SetString(ptr noundef %87, ptr noundef nonnull @.str.30) #16
  br label %complex_subtype_from_doubles.exit

complex_subtype_from_doubles.exit:                ; preds = %84, %80, %35, %22, %86
  %.0 = phi ptr [ null, %86 ], [ null, %22 ], [ null, %35 ], [ null, %80 ], [ %83, %84 ]
  call void @llvm.lifetime.end.p0(i64 8, ptr nonnull %4) #16
  ret ptr %.0
}